target datalayout = "e-m:e-p270:32:32-p271:32:32-p272:64:64-i64:64-i128:128-f80:128-n8:16:32:64-S128"
target triple = "x86_64-pc-linux-gnu"

%struct.SDL_AtomicInt = type { i32 }
%struct.SDL_TLSData = type { i32, [1 x %struct.anon] }
%struct.anon = type { ptr, ptr }

@SDL_tls_allocated = internal global %struct.SDL_AtomicInt zeroinitializer, align 4

; Function Attrs: nounwind uwtable
define hidden void @SDL_CleanupTLS_REAL() #0 {
  %1 = alloca ptr, align 8
  %2 = alloca i32, align 4
  call void @llvm.lifetime.start.p0(i64 8, ptr %1) #6
  %3 = call ptr @SDL_SYS_GetTLSData()
  store ptr %3, ptr %1, align 8
  %4 = load ptr, ptr %1, align 8
  %5 = icmp ne ptr %4, null
  br i1 %5, label %6, label %45

6:                                                ; preds = %0
  call void @llvm.lifetime.start.p0(i64 4, ptr %2) #6
  store i32 0, ptr %2, align 4
  br label %7

7:                                                ; preds = %38, %6
  %8 = load i32, ptr %2, align 4
  %9 = load ptr, ptr %1, align 8
  %10 = getelementptr inbounds nuw %struct.SDL_TLSData, ptr %9, i32 0, i32 0
  %11 = load i32, ptr %10, align 8
  %12 = icmp slt i32 %8, %11
  br i1 %12, label %13, label %41

13:                                               ; preds = %7
  %14 = load ptr, ptr %1, align 8
  %15 = getelementptr inbounds nuw %struct.SDL_TLSData, ptr %14, i32 0, i32 1
  %16 = load i32, ptr %2, align 4
  %17 = sext i32 %16 to i64
  %18 = getelementptr inbounds [1 x %struct.anon], ptr %15, i64 0, i64 %17
  %19 = getelementptr inbounds nuw %struct.anon, ptr %18, i32 0, i32 1
  %20 = load ptr, ptr %19, align 8
  %21 = icmp ne ptr %20, null
  br i1 %21, label %22, label %37

22:                                               ; preds = %13
  %23 = load ptr, ptr %1, align 8
  %24 = getelementptr inbounds nuw %struct.SDL_TLSData, ptr %23, i32 0, i32 1
  %25 = load i32, ptr %2, align 4
  %26 = sext i32 %25 to i64
  %27 = getelementptr inbounds [1 x %struct.anon], ptr %24, i64 0, i64 %26
  %28 = getelementptr inbounds nuw %struct.anon, ptr %27, i32 0, i32 1
  %29 = load ptr, ptr %28, align 8
  %30 = load ptr, ptr %1, align 8
  %31 = getelementptr inbounds nuw %struct.SDL_TLSData, ptr %30, i32 0, i32 1
  %32 = load i32, ptr %2, align 4
  %33 = sext i32 %32 to i64
  %34 = getelementptr inbounds [1 x %struct.anon], ptr %31, i64 0, i64 %33
  %35 = getelementptr inbounds nuw %struct.anon, ptr %34, i32 0, i32 0
  %36 = load ptr, ptr %35, align 8
  call void %29(ptr noundef %36)
  br label %37

37:                                               ; preds = %22, %13
  br label %38

38:                                               ; preds = %37
  %39 = load i32, ptr %2, align 4
  %40 = add nsw i32 %39, 1
  store i32 %40, ptr %2, align 4
  br label %7, !llvm.loop !5

41:                                               ; preds = %7
  %42 = call zeroext i1 @SDL_SYS_SetTLSData(ptr noundef null)
  %43 = load ptr, ptr %1, align 8
  call void @SDL_free_REAL(ptr noundef %43)
  %44 = call i32 @SDL_AddAtomicInt_REAL(ptr noundef @SDL_tls_allocated, i32 noundef -1)
  call void @llvm.lifetime.end.p0(i64 4, ptr %2) #6
  br label %45

45:                                               ; preds = %41, %0
  call void @llvm.lifetime.end.p0(i64 8, ptr %1) #6
  ret void
}