; Function Attrs: nounwind uwtable
define hidden void @SDL_CleanupTLS_REAL() local_unnamed_addr #0 {
  %1 = tail call ptr @SDL_SYS_GetTLSData() #6
  %.not = icmp eq ptr %1, null
  br i1 %.not, label %18, label %.preheader

.preheader:                                       ; preds = %0
  %2 = load i32, ptr %1, align 8
  %3 = icmp sgt i32 %2, 0
  br i1 %3, label %.lr.ph, label %._crit_edge

.lr.ph:                                           ; preds = %.preheader
  %4 = getelementptr inbounds nuw i8, ptr %1, i64 8
  br label %5

5:                                                ; preds = %.lr.ph, %12
  %6 = phi i32 [ %2, %.lr.ph ], [ %13, %12 ]
  %indvars.iv = phi i64 [ 0, %.lr.ph ], [ %indvars.iv.next, %12 ]
  %7 = getelementptr inbounds nuw [1 x %struct.anon], ptr %4, i64 0, i64 %indvars.iv
  %8 = getelementptr inbounds nuw i8, ptr %7, i64 8
  %9 = load ptr, ptr %8, align 8
  %.not12 = icmp eq ptr %9, null
  br i1 %.not12, label %12, label %10

10:                                               ; preds = %5
  %11 = load ptr, ptr %7, align 8
  tail call void %9(ptr noundef %11) #6
  %.pre = load i32, ptr %1, align 8
  br label %12

12:                                               ; preds = %5, %10
  %13 = phi i32 [ %6, %5 ], [ %.pre, %10 ]
  %indvars.iv.next = add nuw nsw i64 %indvars.iv, 1
  %14 = sext i32 %13 to i64
  %15 = icmp slt i64 %indvars.iv.next, %14
  br i1 %15, label %5, label %._crit_edge, !llvm.loop !3

._crit_edge:                                      ; preds = %12, %.preheader
  %16 = tail call zeroext i1 @SDL_SYS_SetTLSData(ptr noundef null) #6
  tail call void @SDL_free_REAL(ptr noundef nonnull %1) #6
  %17 = tail call i32 @SDL_AddAtomicInt_REAL(ptr noundef nonnull @SDL_tls_allocated, i32 noundef -1) #6
  br label %18

18:                                               ; preds = %._crit_edge, %0
  ret void
}